target datalayout = "e-m:e-p270:32:32-p271:32:32-p272:64:64-i64:64-i128:128-f80:128-n8:16:32:64-S128"
target triple = "x86_64-unknown-linux-gnu"

%"class.std::shared_ptr" = type { %"class.std::__shared_ptr" }
%"class.std::__shared_ptr" = type { ptr, %"class.std::__shared_count" }
%"class.std::__shared_count" = type { ptr }
%"class.facebook::velox::LazyVector" = type { %"class.facebook::velox::BaseVector.base", %"class.std::unique_ptr", i8, %"class.std::shared_ptr" }
%"class.facebook::velox::BaseVector.base" = type <{ ptr, %"class.std::shared_ptr.13", i8, [3 x i8], i32, %"class.boost::intrusive_ptr", ptr, ptr, i32, %"class.std::optional.16", %"class.std::optional.16", %"class.std::optional.16", %"class.std::optional.16", i32, i8, i8, i8 }>
%"class.std::shared_ptr.13" = type { %"class.std::__shared_ptr.14" }
%"class.std::__shared_ptr.14" = type { ptr, %"class.std::__shared_count" }
%"class.boost::intrusive_ptr" = type { ptr }
%"class.std::optional.16" = type { %"struct.std::_Optional_base.17" }
%"struct.std::_Optional_base.17" = type { %"struct.std::_Optional_payload.19" }
%"struct.std::_Optional_payload.19" = type { %"struct.std::_Optional_payload_base.base", [3 x i8] }
%"struct.std::_Optional_payload_base.base" = type <{ %"union.std::_Optional_payload_base<int>::_Storage", i8 }>
%"union.std::_Optional_payload_base<int>::_Storage" = type { i32 }
%"class.std::unique_ptr" = type { %"struct.std::__uniq_ptr_data" }
%"struct.std::__uniq_ptr_data" = type { %"class.std::__uniq_ptr_impl" }
%"class.std::__uniq_ptr_impl" = type { %"class.std::tuple" }
%"class.std::tuple" = type { %"struct.std::_Tuple_impl" }
%"struct.std::_Tuple_impl" = type { %"struct.std::_Head_base.23" }
%"struct.std::_Head_base.23" = type { ptr }
%"struct.facebook::velox::VectorValidateOptions" = type { i8, %"class.std::function" }
%"class.std::function" = type { %"class.std::_Function_base", ptr }
%"class.std::_Function_base" = type { %"union.std::_Any_data", ptr }
%"union.std::_Any_data" = type { %"union.std::_Nocopy_types" }
%"union.std::_Nocopy_types" = type { { i64, i64 } }

; Function Attrs: mustprogress nounwind uwtable
define linkonce_odr noundef zeroext i1 @_ZNK8facebook5velox10LazyVector8isLoadedEv(ptr noundef nonnull align 8 dereferenceable(136) %this) #2 comdat align 2 {
entry:
  %this.addr = alloca ptr, align 8
  store ptr %this, ptr %this.addr, align 8
  %this1 = load ptr, ptr %this.addr, align 8
  %allLoaded_ = getelementptr inbounds %"class.facebook::velox::LazyVector", ptr %this1, i32 0, i32 2
  %0 = load i8, ptr %allLoaded_, align 8
  %tobool = trunc i8 %0 to i1
  ret i1 %tobool
}

; Function Attrs: mustprogress uwtable
define void @_ZNK8facebook5velox10LazyVector8validateERKNS0_21VectorValidateOptionsE(ptr noundef nonnull align 8 dereferenceable(136) %this, ptr noundef nonnull align 8 dereferenceable(40) %options) unnamed_addr #0 align 2 {
entry:
  %this.addr = alloca ptr, align 8
  %options.addr = alloca ptr, align 8
  %loadedVector = alloca ptr, align 8
  store ptr %this, ptr %this.addr, align 8
  store ptr %options, ptr %options.addr, align 8
  %this1 = load ptr, ptr %this.addr, align 8
  %call = call noundef zeroext i1 @_ZNK8facebook5velox10LazyVector8isLoadedEv(ptr noundef nonnull align 8 dereferenceable(136) %this1)
  br i1 %call, label %if.then, label %lor.lhs.false

lor.lhs.false:                                    ; preds = %entry
  %0 = load ptr, ptr %options.addr, align 8
  %loadLazy = getelementptr inbounds %"struct.facebook::velox::VectorValidateOptions", ptr %0, i32 0, i32 0
  %1 = load i8, ptr %loadLazy, align 8
  %tobool = trunc i8 %1 to i1
  br i1 %tobool, label %if.then, label %if.end6

if.then:                                          ; preds = %lor.lhs.false, %entry
  %vtable = load ptr, ptr %this1, align 8
  %vfn = getelementptr inbounds ptr, ptr %vtable, i64 33
  %2 = load ptr, ptr %vfn, align 8
  %call2 = call noundef ptr %2(ptr noundef nonnull align 8 dereferenceable(136) %this1)
  store ptr %call2, ptr %loadedVector, align 8
  %3 = load ptr, ptr %loadedVector, align 8
  %cmp = icmp ne ptr %3, null
  %lnot = xor i1 %cmp, true
  br i1 %lnot, label %if.then3, label %if.end

if.then3:                                         ; preds = %if.then
  call void @llvm.trap()
  br label %if.end

if.end:                                           ; preds = %if.then3, %if.then
  %4 = load ptr, ptr %loadedVector, align 8
  %5 = load ptr, ptr %options.addr, align 8
  %vtable4 = load ptr, ptr %4, align 8
  %vfn5 = getelementptr inbounds ptr, ptr %vtable4, i64 41
  %6 = load ptr, ptr %vfn5, align 8
  call void %6(ptr noundef nonnull align 8 dereferenceable(99) %4, ptr noundef nonnull align 8 dereferenceable(40) %5)
  br label %if.end6

if.end6:                                          ; preds = %if.end, %lor.lhs.false
  ret void
}