; Function Attrs: mustprogress uwtable
define void @_ZNK8facebook5velox10LazyVector8validateERKNS0_21VectorValidateOptionsE(ptr noundef nonnull align 8 dereferenceable(136) %this, ptr noundef nonnull align 8 dereferenceable(40) %options) unnamed_addr #0 align 2 {
entry:
  %allLoaded_.i = getelementptr inbounds i8, ptr %this, i64 112
  %0 = load i8, ptr %allLoaded_.i, align 8
  %1 = and i8 %0, 1
  %tobool.i.not = icmp eq i8 %1, 0
  br i1 %tobool.i.not, label %lor.lhs.false, label %if.then

lor.lhs.false:                                    ; preds = %entry
  %2 = load i8, ptr %options, align 8
  %3 = and i8 %2, 1
  %tobool.not = icmp eq i8 %3, 0
  br i1 %tobool.not, label %if.end6, label %if.then

if.then:                                          ; preds = %lor.lhs.false, %entry
  %vtable = load ptr, ptr %this, align 8
  %vfn = getelementptr inbounds i8, ptr %vtable, i64 264
  %4 = load ptr, ptr %vfn, align 8
  %call2 = tail call noundef ptr %4(ptr noundef nonnull align 8 dereferenceable(136) %this)
  %cmp.not = icmp eq ptr %call2, null
  br i1 %cmp.not, label %if.then3, label %if.end

if.then3:                                         ; preds = %if.then
  tail call void @llvm.trap()
  unreachable

if.end:                                           ; preds = %if.then
  %vtable4 = load ptr, ptr %call2, align 8
  %vfn5 = getelementptr inbounds i8, ptr %vtable4, i64 328
  %5 = load ptr, ptr %vfn5, align 8
  tail call void %5(ptr noundef nonnull align 8 dereferenceable(99) %call2, ptr noundef nonnull align 8 dereferenceable(40) %options)
  br label %if.end6

if.end6:                                          ; preds = %if.end, %lor.lhs.false
  ret void
}